target datalayout = "e-m:e-p270:32:32-p271:32:32-p272:64:64-i64:64-i128:128-f80:128-n8:16:32:64-S128"
target triple = "x86_64-pc-linux-gnu"

%struct.ARKodeSPRKTableMem = type { i32, i32, ptr, ptr }

@.str = private unnamed_addr constant [22 x i8] c"ARKODE_SPRK_EULER_1_1\00", align 1
@.str.1 = private unnamed_addr constant [25 x i8] c"ARKODE_SPRK_LEAPFROG_2_2\00", align 1
@.str.2 = private unnamed_addr constant [32 x i8] c"ARKODE_SPRK_PSEUDO_LEAPFROG_2_2\00", align 1
@.str.3 = private unnamed_addr constant [21 x i8] c"ARKODE_SPRK_RUTH_3_3\00", align 1
@.str.4 = private unnamed_addr constant [26 x i8] c"ARKODE_SPRK_MCLACHLAN_2_2\00", align 1
@.str.5 = private unnamed_addr constant [26 x i8] c"ARKODE_SPRK_MCLACHLAN_3_3\00", align 1
@.str.6 = private unnamed_addr constant [26 x i8] c"ARKODE_SPRK_MCLACHLAN_4_4\00", align 1
@.str.7 = private unnamed_addr constant [29 x i8] c"ARKODE_SPRK_CANDY_ROZMUS_4_4\00", align 1
@.str.8 = private unnamed_addr constant [26 x i8] c"ARKODE_SPRK_MCLACHLAN_5_6\00", align 1
@.str.9 = private unnamed_addr constant [24 x i8] c"ARKODE_SPRK_YOSHIDA_6_8\00", align 1
@.str.10 = private unnamed_addr constant [30 x i8] c"ARKODE_SPRK_SUZUKI_UMENO_8_16\00", align 1
@.str.11 = private unnamed_addr constant [28 x i8] c"ARKODE_SPRK_SOFRONIOU_10_36\00", align 1

; Function Attrs: nounwind uwtable
define void @ARKodeSPRKTable_Free(ptr noundef %0) #0 {
  %2 = alloca ptr, align 8
  store ptr %0, ptr %2, align 8, !tbaa !10
  %3 = load ptr, ptr %2, align 8, !tbaa !10
  %4 = icmp ne ptr %3, null
  br i1 %4, label %5, label %25

5:                                                ; preds = %1
  %6 = load ptr, ptr %2, align 8, !tbaa !10
  %7 = getelementptr inbounds nuw %struct.ARKodeSPRKTableMem, ptr %6, i32 0, i32 3
  %8 = load ptr, ptr %7, align 8, !tbaa !18
  %9 = icmp ne ptr %8, null
  br i1 %9, label %10, label %14

10:                                               ; preds = %5
  %11 = load ptr, ptr %2, align 8, !tbaa !10
  %12 = getelementptr inbounds nuw %struct.ARKodeSPRKTableMem, ptr %11, i32 0, i32 3
  %13 = load ptr, ptr %12, align 8, !tbaa !18
  call void @free(ptr noundef %13) #8
  br label %14

14:                                               ; preds = %10, %5
  %15 = load ptr, ptr %2, align 8, !tbaa !10
  %16 = getelementptr inbounds nuw %struct.ARKodeSPRKTableMem, ptr %15, i32 0, i32 2
  %17 = load ptr, ptr %16, align 8, !tbaa !17
  %18 = icmp ne ptr %17, null
  br i1 %18, label %19, label %23

19:                                               ; preds = %14
  %20 = load ptr, ptr %2, align 8, !tbaa !10
  %21 = getelementptr inbounds nuw %struct.ARKodeSPRKTableMem, ptr %20, i32 0, i32 2
  %22 = load ptr, ptr %21, align 8, !tbaa !17
  call void @free(ptr noundef %22) #8
  br label %23

23:                                               ; preds = %19, %14
  %24 = load ptr, ptr %2, align 8, !tbaa !10
  call void @free(ptr noundef %24) #8
  br label %25

25:                                               ; preds = %23, %1
  ret void
}

; Function Attrs: nounwind uwtable
define ptr @ARKodeSPRKTable_Alloc(i32 noundef %0) #0 {
  %2 = alloca ptr, align 8
  %3 = alloca i32, align 4
  %4 = alloca ptr, align 8
  %5 = alloca i32, align 4
  store i32 %0, ptr %3, align 4, !tbaa !3
  call void @llvm.lifetime.start.p0(i64 8, ptr %4) #8
  store ptr null, ptr %4, align 8, !tbaa !10
  %6 = call noalias ptr @malloc(i64 noundef 24) #9
  store ptr %6, ptr %4, align 8, !tbaa !10
  %7 = load ptr, ptr %4, align 8, !tbaa !10
  %8 = icmp ne ptr %7, null
  br i1 %8, label %10, label %9

9:                                                ; preds = %1
  store ptr null, ptr %2, align 8
  store i32 1, ptr %5, align 4
  br label %42

10:                                               ; preds = %1
  %11 = load ptr, ptr %4, align 8, !tbaa !10
  call void @llvm.memset.p0.i64(ptr align 8 %11, i8 0, i64 24, i1 false)
  %12 = load i32, ptr %3, align 4, !tbaa !3
  %13 = sext i32 %12 to i64
  %14 = mul i64 %13, 8
  %15 = call noalias ptr @malloc(i64 noundef %14) #9
  %16 = load ptr, ptr %4, align 8, !tbaa !10
  %17 = getelementptr inbounds nuw %struct.ARKodeSPRKTableMem, ptr %16, i32 0, i32 3
  store ptr %15, ptr %17, align 8, !tbaa !18
  %18 = load ptr, ptr %4, align 8, !tbaa !10
  %19 = getelementptr inbounds nuw %struct.ARKodeSPRKTableMem, ptr %18, i32 0, i32 3
  %20 = load ptr, ptr %19, align 8, !tbaa !18
  %21 = icmp ne ptr %20, null
  br i1 %21, label %24, label %22

22:                                               ; preds = %10
  %23 = load ptr, ptr %4, align 8, !tbaa !10
  call void @ARKodeSPRKTable_Free(ptr noundef %23)
  store ptr null, ptr %2, align 8
  store i32 1, ptr %5, align 4
  br label %42

24:                                               ; preds = %10
  %25 = load i32, ptr %3, align 4, !tbaa !3
  %26 = sext i32 %25 to i64
  %27 = mul i64 %26, 8
  %28 = call noalias ptr @malloc(i64 noundef %27) #9
  %29 = load ptr, ptr %4, align 8, !tbaa !10
  %30 = getelementptr inbounds nuw %struct.ARKodeSPRKTableMem, ptr %29, i32 0, i32 2
  store ptr %28, ptr %30, align 8, !tbaa !17
  %31 = load ptr, ptr %4, align 8, !tbaa !10
  %32 = getelementptr inbounds nuw %struct.ARKodeSPRKTableMem, ptr %31, i32 0, i32 2
  %33 = load ptr, ptr %32, align 8, !tbaa !17
  %34 = icmp ne ptr %33, null
  br i1 %34, label %37, label %35

35:                                               ; preds = %24
  %36 = load ptr, ptr %4, align 8, !tbaa !10
  call void @ARKodeSPRKTable_Free(ptr noundef %36)
  store ptr null, ptr %2, align 8
  store i32 1, ptr %5, align 4
  br label %42

37:                                               ; preds = %24
  %38 = load i32, ptr %3, align 4, !tbaa !3
  %39 = load ptr, ptr %4, align 8, !tbaa !10
  %40 = getelementptr inbounds nuw %struct.ARKodeSPRKTableMem, ptr %39, i32 0, i32 1
  store i32 %38, ptr %40, align 4, !tbaa !12
  %41 = load ptr, ptr %4, align 8, !tbaa !10
  store ptr %41, ptr %2, align 8
  store i32 1, ptr %5, align 4
  br label %42

42:                                               ; preds = %37, %35, %22, %9
  call void @llvm.lifetime.end.p0(i64 8, ptr %4) #8
  %43 = load ptr, ptr %2, align 8
  ret ptr %43
}

; Function Attrs: nounwind uwtable
define internal ptr @arkodeSymplecticEuler() #0 {
  %1 = alloca ptr, align 8
  %2 = alloca ptr, align 8
  %3 = alloca i32, align 4
  call void @llvm.lifetime.start.p0(i64 8, ptr %2) #8
  %4 = call ptr @ARKodeSPRKTable_Alloc(i32 noundef 1)
  store ptr %4, ptr %2, align 8, !tbaa !10
  %5 = load ptr, ptr %2, align 8, !tbaa !10
  %6 = icmp ne ptr %5, null
  br i1 %6, label %8, label %7

7:                                                ; preds = %0
  store ptr null, ptr %1, align 8
  store i32 1, ptr %3, align 4
  br label %22

8:                                                ; preds = %0
  %9 = load ptr, ptr %2, align 8, !tbaa !10
  %10 = getelementptr inbounds nuw %struct.ARKodeSPRKTableMem, ptr %9, i32 0, i32 0
  store i32 1, ptr %10, align 8, !tbaa !14
  %11 = load ptr, ptr %2, align 8, !tbaa !10
  %12 = getelementptr inbounds nuw %struct.ARKodeSPRKTableMem, ptr %11, i32 0, i32 1
  store i32 1, ptr %12, align 4, !tbaa !12
  %13 = load ptr, ptr %2, align 8, !tbaa !10
  %14 = getelementptr inbounds nuw %struct.ARKodeSPRKTableMem, ptr %13, i32 0, i32 2
  %15 = load ptr, ptr %14, align 8, !tbaa !17
  %16 = getelementptr inbounds double, ptr %15, i64 0
  store double 1.000000e+00, ptr %16, align 8, !tbaa !15
  %17 = load ptr, ptr %2, align 8, !tbaa !10
  %18 = getelementptr inbounds nuw %struct.ARKodeSPRKTableMem, ptr %17, i32 0, i32 3
  %19 = load ptr, ptr %18, align 8, !tbaa !18
  %20 = getelementptr inbounds double, ptr %19, i64 0
  store double 1.000000e+00, ptr %20, align 8, !tbaa !15
  %21 = load ptr, ptr %2, align 8, !tbaa !10
  store ptr %21, ptr %1, align 8
  store i32 1, ptr %3, align 4
  br label %22

22:                                               ; preds = %8, %7
  call void @llvm.lifetime.end.p0(i64 8, ptr %2) #8
  %23 = load ptr, ptr %1, align 8
  ret ptr %23
}

; Function Attrs: nounwind uwtable
define ptr @ARKodeSPRKTable_LoadByName(ptr noundef %0) #0 {
  %2 = alloca ptr, align 8
  %3 = alloca ptr, align 8
  store ptr %0, ptr %3, align 8, !tbaa !19
  %4 = load ptr, ptr %3, align 8, !tbaa !19
  %5 = call i32 @strcmp(ptr noundef %4, ptr noundef @.str) #10
  %6 = icmp ne i32 %5, 0
  br i1 %6, label %9, label %7

7:                                                ; preds = %1
  %8 = call ptr @arkodeSymplecticEuler()
  store ptr %8, ptr %2, align 8
  br label %76

9:                                                ; preds = %1
  %10 = load ptr, ptr %3, align 8, !tbaa !19
  %11 = call i32 @strcmp(ptr noundef %10, ptr noundef @.str.1) #10
  %12 = icmp ne i32 %11, 0
  br i1 %12, label %15, label %13

13:                                               ; preds = %9
  %14 = call ptr @arkodeSymplecticLeapfrog2()
  store ptr %14, ptr %2, align 8
  br label %76

15:                                               ; preds = %9
  %16 = load ptr, ptr %3, align 8, !tbaa !19
  %17 = call i32 @strcmp(ptr noundef %16, ptr noundef @.str.2) #10
  %18 = icmp ne i32 %17, 0
  br i1 %18, label %21, label %19

19:                                               ; preds = %15
  %20 = call ptr @arkodeSymplecticPseudoLeapfrog2()
  store ptr %20, ptr %2, align 8
  br label %76

21:                                               ; preds = %15
  %22 = load ptr, ptr %3, align 8, !tbaa !19
  %23 = call i32 @strcmp(ptr noundef %22, ptr noundef @.str.3) #10
  %24 = icmp ne i32 %23, 0
  br i1 %24, label %27, label %25

25:                                               ; preds = %21
  %26 = call ptr @arkodeSymplecticRuth3()
  store ptr %26, ptr %2, align 8
  br label %76

27:                                               ; preds = %21
  %28 = load ptr, ptr %3, align 8, !tbaa !19
  %29 = call i32 @strcmp(ptr noundef %28, ptr noundef @.str.4) #10
  %30 = icmp ne i32 %29, 0
  br i1 %30, label %33, label %31

31:                                               ; preds = %27
  %32 = call ptr @arkodeSymplecticMcLachlan2()
  store ptr %32, ptr %2, align 8
  br label %76

33:                                               ; preds = %27
  %34 = load ptr, ptr %3, align 8, !tbaa !19
  %35 = call i32 @strcmp(ptr noundef %34, ptr noundef @.str.5) #10
  %36 = icmp ne i32 %35, 0
  br i1 %36, label %39, label %37

37:                                               ; preds = %33
  %38 = call ptr @arkodeSymplecticMcLachlan3()
  store ptr %38, ptr %2, align 8
  br label %76

39:                                               ; preds = %33
  %40 = load ptr, ptr %3, align 8, !tbaa !19
  %41 = call i32 @strcmp(ptr noundef %40, ptr noundef @.str.6) #10
  %42 = icmp ne i32 %41, 0
  br i1 %42, label %45, label %43

43:                                               ; preds = %39
  %44 = call ptr @arkodeSymplecticMcLachlan4()
  store ptr %44, ptr %2, align 8
  br label %76

45:                                               ; preds = %39
  %46 = load ptr, ptr %3, align 8, !tbaa !19
  %47 = call i32 @strcmp(ptr noundef %46, ptr noundef @.str.7) #10
  %48 = icmp ne i32 %47, 0
  br i1 %48, label %51, label %49

49:                                               ; preds = %45
  %50 = call ptr @arkodeSymplecticCandyRozmus4()
  store ptr %50, ptr %2, align 8
  br label %76

51:                                               ; preds = %45
  %52 = load ptr, ptr %3, align 8, !tbaa !19
  %53 = call i32 @strcmp(ptr noundef %52, ptr noundef @.str.8) #10
  %54 = icmp ne i32 %53, 0
  br i1 %54, label %57, label %55

55:                                               ; preds = %51
  %56 = call ptr @arkodeSymplecticMcLachlan5()
  store ptr %56, ptr %2, align 8
  br label %76

57:                                               ; preds = %51
  %58 = load ptr, ptr %3, align 8, !tbaa !19
  %59 = call i32 @strcmp(ptr noundef %58, ptr noundef @.str.9) #10
  %60 = icmp ne i32 %59, 0
  br i1 %60, label %63, label %61

61:                                               ; preds = %57
  %62 = call ptr @arkodeSymplecticYoshida6()
  store ptr %62, ptr %2, align 8
  br label %76

63:                                               ; preds = %57
  %64 = load ptr, ptr %3, align 8, !tbaa !19
  %65 = call i32 @strcmp(ptr noundef %64, ptr noundef @.str.10) #10
  %66 = icmp ne i32 %65, 0
  br i1 %66, label %69, label %67

67:                                               ; preds = %63
  %68 = call ptr @arkodeSymplecticSuzukiUmeno816()
  store ptr %68, ptr %2, align 8
  br label %76

69:                                               ; preds = %63
  %70 = load ptr, ptr %3, align 8, !tbaa !19
  %71 = call i32 @strcmp(ptr noundef %70, ptr noundef @.str.11) #10
  %72 = icmp ne i32 %71, 0
  br i1 %72, label %75, label %73

73:                                               ; preds = %69
  %74 = call ptr @arkodeSymplecticSofroniou10()
  store ptr %74, ptr %2, align 8
  br label %76

75:                                               ; preds = %69
  store ptr null, ptr %2, align 8
  br label %76

76:                                               ; preds = %75, %73, %67, %61, %55, %49, %43, %37, %31, %25, %19, %13, %7
  %77 = load ptr, ptr %2, align 8
  ret ptr %77
}