; Function Attrs: nounwind uwtable
define noalias noundef ptr @ARKodeSPRKTable_LoadByName(ptr noundef readonly captures(none) %0) local_unnamed_addr #5 {
  %2 = tail call i32 @strcmp(ptr noundef nonnull dereferenceable(1) %0, ptr noundef nonnull dereferenceable(22) @.str) #15
  %.not = icmp eq i32 %2, 0
  br i1 %.not, label %3, label %12

3:                                                ; preds = %1
  %calloc.i.i = tail call dereferenceable_or_null(24) ptr @calloc(i64 1, i64 24)
  %.not.i.i = icmp eq ptr %calloc.i.i, null
  br i1 %.not.i.i, label %arkodeSymplecticEuler.exit, label %4

4:                                                ; preds = %3
  %5 = tail call noalias dereferenceable_or_null(8) ptr @malloc(i64 noundef 8) #13
  %6 = getelementptr inbounds nuw i8, ptr %calloc.i.i, i64 16
  store ptr %5, ptr %6, align 8, !tbaa !3
  %.not14.i.i = icmp eq ptr %5, null
  br i1 %.not14.i.i, label %ARKodeSPRKTable_Free.exit.i.i, label %7

ARKodeSPRKTable_Free.exit.i.i:                    ; preds = %4
  tail call void @free(ptr noundef nonnull %calloc.i.i) #14
  br label %arkodeSymplecticEuler.exit

7:                                                ; preds = %4
  %8 = tail call noalias dereferenceable_or_null(8) ptr @malloc(i64 noundef 8) #13
  %9 = getelementptr inbounds nuw i8, ptr %calloc.i.i, i64 8
  store ptr %8, ptr %9, align 8, !tbaa !10
  %.not15.i.i = icmp eq ptr %8, null
  br i1 %.not15.i.i, label %ARKodeSPRKTable_Free.exit19.i.i, label %10

ARKodeSPRKTable_Free.exit19.i.i:                  ; preds = %7
  tail call void @free(ptr noundef nonnull %5) #14
  tail call void @free(ptr noundef nonnull %calloc.i.i) #14
  br label %arkodeSymplecticEuler.exit

10:                                               ; preds = %7
  %11 = getelementptr inbounds nuw i8, ptr %calloc.i.i, i64 4
  store i32 1, ptr %calloc.i.i, align 8, !tbaa !12
  store i32 1, ptr %11, align 4, !tbaa !11
  store double 1.000000e+00, ptr %8, align 8, !tbaa !13
  store double 1.000000e+00, ptr %5, align 8, !tbaa !13
  br label %arkodeSymplecticEuler.exit

12:                                               ; preds = %1
  %13 = tail call i32 @strcmp(ptr noundef nonnull dereferenceable(1) %0, ptr noundef nonnull dereferenceable(25) @.str.1) #15
  %.not13 = icmp eq i32 %13, 0
  br i1 %.not13, label %14, label %16

14:                                               ; preds = %12
  %15 = tail call fastcc ptr @arkodeSymplecticLeapfrog2()
  br label %arkodeSymplecticEuler.exit

16:                                               ; preds = %12
  %17 = tail call i32 @strcmp(ptr noundef nonnull dereferenceable(1) %0, ptr noundef nonnull dereferenceable(32) @.str.2) #15
  %.not14 = icmp eq i32 %17, 0
  br i1 %.not14, label %18, label %20

18:                                               ; preds = %16
  %19 = tail call fastcc ptr @arkodeSymplecticPseudoLeapfrog2()
  br label %arkodeSymplecticEuler.exit

20:                                               ; preds = %16
  %21 = tail call i32 @strcmp(ptr noundef nonnull dereferenceable(1) %0, ptr noundef nonnull dereferenceable(21) @.str.3) #15
  %.not15 = icmp eq i32 %21, 0
  br i1 %.not15, label %22, label %24

22:                                               ; preds = %20
  %23 = tail call fastcc ptr @arkodeSymplecticRuth3()
  br label %arkodeSymplecticEuler.exit

24:                                               ; preds = %20
  %25 = tail call i32 @strcmp(ptr noundef nonnull dereferenceable(1) %0, ptr noundef nonnull dereferenceable(26) @.str.4) #15
  %.not16 = icmp eq i32 %25, 0
  br i1 %.not16, label %26, label %28

26:                                               ; preds = %24
  %27 = tail call fastcc ptr @arkodeSymplecticMcLachlan2()
  br label %arkodeSymplecticEuler.exit

28:                                               ; preds = %24
  %29 = tail call i32 @strcmp(ptr noundef nonnull dereferenceable(1) %0, ptr noundef nonnull dereferenceable(26) @.str.5) #15
  %.not17 = icmp eq i32 %29, 0
  br i1 %.not17, label %30, label %32

30:                                               ; preds = %28
  %31 = tail call fastcc ptr @arkodeSymplecticMcLachlan3()
  br label %arkodeSymplecticEuler.exit

32:                                               ; preds = %28
  %33 = tail call i32 @strcmp(ptr noundef nonnull dereferenceable(1) %0, ptr noundef nonnull dereferenceable(26) @.str.6) #15
  %.not18 = icmp eq i32 %33, 0
  br i1 %.not18, label %34, label %36

34:                                               ; preds = %32
  %35 = tail call fastcc ptr @arkodeSymplecticMcLachlan4()
  br label %arkodeSymplecticEuler.exit

36:                                               ; preds = %32
  %37 = tail call i32 @strcmp(ptr noundef nonnull dereferenceable(1) %0, ptr noundef nonnull dereferenceable(29) @.str.7) #15
  %.not19 = icmp eq i32 %37, 0
  br i1 %.not19, label %38, label %40

38:                                               ; preds = %36
  %39 = tail call fastcc ptr @arkodeSymplecticCandyRozmus4()
  br label %arkodeSymplecticEuler.exit

40:                                               ; preds = %36
  %41 = tail call i32 @strcmp(ptr noundef nonnull dereferenceable(1) %0, ptr noundef nonnull dereferenceable(26) @.str.8) #15
  %.not20 = icmp eq i32 %41, 0
  br i1 %.not20, label %42, label %44

42:                                               ; preds = %40
  %43 = tail call fastcc ptr @arkodeSymplecticMcLachlan5()
  br label %arkodeSymplecticEuler.exit

44:                                               ; preds = %40
  %45 = tail call i32 @strcmp(ptr noundef nonnull dereferenceable(1) %0, ptr noundef nonnull dereferenceable(24) @.str.9) #15
  %.not21 = icmp eq i32 %45, 0
  br i1 %.not21, label %46, label %48

46:                                               ; preds = %44
  %47 = tail call fastcc ptr @arkodeSymplecticYoshida6()
  br label %arkodeSymplecticEuler.exit

48:                                               ; preds = %44
  %49 = tail call i32 @strcmp(ptr noundef nonnull dereferenceable(1) %0, ptr noundef nonnull dereferenceable(30) @.str.10) #15
  %.not22 = icmp eq i32 %49, 0
  br i1 %.not22, label %50, label %52

50:                                               ; preds = %48
  %51 = tail call fastcc ptr @arkodeSymplecticSuzukiUmeno816()
  br label %arkodeSymplecticEuler.exit

52:                                               ; preds = %48
  %53 = tail call i32 @strcmp(ptr noundef nonnull dereferenceable(1) %0, ptr noundef nonnull dereferenceable(28) @.str.11) #15
  %.not23 = icmp eq i32 %53, 0
  br i1 %.not23, label %54, label %arkodeSymplecticEuler.exit

54:                                               ; preds = %52
  %55 = tail call fastcc ptr @arkodeSymplecticSofroniou10()
  br label %arkodeSymplecticEuler.exit

arkodeSymplecticEuler.exit:                       ; preds = %10, %ARKodeSPRKTable_Free.exit19.i.i, %ARKodeSPRKTable_Free.exit.i.i, %3, %52, %54, %50, %46, %42, %38, %34, %30, %26, %22, %18, %14
  %.0 = phi ptr [ %55, %54 ], [ %51, %50 ], [ %47, %46 ], [ %43, %42 ], [ %39, %38 ], [ %35, %34 ], [ %31, %30 ], [ %27, %26 ], [ %23, %22 ], [ %19, %18 ], [ %15, %14 ], [ null, %52 ], [ %calloc.i.i, %10 ], [ null, %ARKodeSPRKTable_Free.exit19.i.i ], [ null, %ARKodeSPRKTable_Free.exit.i.i ], [ null, %3 ]
  ret ptr %.0
}